target datalayout = "e-m:e-p270:32:32-p271:32:32-p272:64:64-i64:64-i128:128-f80:128-n8:16:32:64-S128"
target triple = "x86_64-pc-linux-gnu"

%struct.ForEachState = type { ptr, i32 }
%union.ListCell = type { ptr }
%struct.Query = type { i32, i32, i32, i64, i8, ptr, i32, i8, i8, i8, i8, i8, i8, i8, i8, i8, i8, i8, ptr, ptr, ptr, ptr, ptr, i32, ptr, ptr, i32, ptr, ptr, ptr, ptr, ptr, i8, ptr, ptr, ptr, ptr, ptr, ptr, ptr, i32, ptr, ptr, ptr, ptr, i32, i32 }
%struct.List = type { i32, i32, i32, ptr, [0 x %union.ListCell] }
%struct.RangeTblRef = type { i32, i32 }
%struct.Node = type { i32 }
%struct.Expr = type { i32 }
%struct.PlannerInfo = type { i32, ptr, ptr, i32, ptr, ptr, ptr, ptr, i32, ptr, ptr, ptr, ptr, ptr, ptr, ptr, ptr, i32, ptr, ptr, ptr, ptr, ptr, i8, ptr, ptr, ptr, ptr, ptr, i32, ptr, ptr, ptr, ptr, ptr, ptr, ptr, i32, ptr, ptr, ptr, i32, ptr, ptr, ptr, ptr, ptr, ptr, [8 x ptr], [8 x ptr], ptr, ptr, ptr, ptr, ptr, ptr, ptr, double, double, double, i32, i8, i8, i8, i8, i8, i8, i8, i32, ptr, ptr, i32, i8, i8, i32, ptr, ptr, ptr, ptr, ptr, ptr, i8, ptr }
%struct.SetOperationStmt = type { i32, i32, i8, ptr, ptr, ptr, ptr, ptr, ptr }
%struct.AppendRelInfo = type { i32, i32, i32, i32, i32, ptr, i32, ptr, i32 }
%struct.TargetEntry = type { %struct.Expr, ptr, i16, ptr, i32, i32, i16, i8 }

@.str.2 = private unnamed_addr constant [15 x i8] c"prepjointree.c\00", align 1
@.str.5 = private unnamed_addr constant [27 x i8] c"unrecognized node type: %d\00", align 1
@__func__.pull_up_union_leaf_queries = private unnamed_addr constant [27 x i8] c"pull_up_union_leaf_queries\00", align 1

; Function Attrs: inlinehint nounwind uwtable
define internal i32 @list_length(ptr noundef %0) #3 {
  %2 = alloca ptr, align 8
  store ptr %0, ptr %2, align 8
  %3 = load ptr, ptr %2, align 8
  %4 = icmp ne ptr %3, null
  br i1 %4, label %5, label %9

5:                                                ; preds = %1
  %6 = load ptr, ptr %2, align 8
  %7 = getelementptr inbounds nuw %struct.List, ptr %6, i32 0, i32 1
  %8 = load i32, ptr %7, align 4
  br label %10

9:                                                ; preds = %1
  br label %10

10:                                               ; preds = %9, %5
  %11 = phi i32 [ %8, %5 ], [ 0, %9 ]
  ret i32 %11
}

; Function Attrs: nounwind uwtable
define internal void @make_setop_translation_list(ptr noundef %0, i32 noundef %1, ptr noundef %2) #0 {
  %4 = alloca ptr, align 8
  %5 = alloca i32, align 4
  %6 = alloca ptr, align 8
  %7 = alloca ptr, align 8
  %8 = alloca ptr, align 8
  %9 = alloca ptr, align 8
  %10 = alloca %struct.ForEachState, align 8
  %11 = alloca i32, align 4
  %12 = alloca ptr, align 8
  store ptr %0, ptr %4, align 8
  store i32 %1, ptr %5, align 4
  store ptr %2, ptr %6, align 8
  call void @llvm.lifetime.start.p0(i64 8, ptr %7) #8
  store ptr null, ptr %7, align 8
  call void @llvm.lifetime.start.p0(i64 8, ptr %8) #8
  call void @llvm.lifetime.start.p0(i64 8, ptr %9) #8
  %13 = load ptr, ptr %4, align 8
  %14 = getelementptr inbounds nuw %struct.Query, ptr %13, i32 0, i32 25
  %15 = load ptr, ptr %14, align 8
  %16 = call i32 @list_length(ptr noundef %15)
  %17 = load ptr, ptr %6, align 8
  %18 = getelementptr inbounds nuw %struct.AppendRelInfo, ptr %17, i32 0, i32 6
  store i32 %16, ptr %18, align 8
  %19 = load ptr, ptr %6, align 8
  %20 = getelementptr inbounds nuw %struct.AppendRelInfo, ptr %19, i32 0, i32 6
  %21 = load i32, ptr %20, align 8
  %22 = sext i32 %21 to i64
  %23 = mul i64 %22, 2
  %24 = call ptr @palloc0(i64 noundef %23)
  store ptr %24, ptr %8, align 8
  %25 = load ptr, ptr %6, align 8
  %26 = getelementptr inbounds nuw %struct.AppendRelInfo, ptr %25, i32 0, i32 7
  store ptr %24, ptr %26, align 8
  call void @llvm.lifetime.start.p0(i64 16, ptr %10) #8
  %27 = getelementptr inbounds nuw %struct.ForEachState, ptr %10, i32 0, i32 0
  %28 = load ptr, ptr %4, align 8
  %29 = getelementptr inbounds nuw %struct.Query, ptr %28, i32 0, i32 25
  %30 = load ptr, ptr %29, align 8
  store ptr %30, ptr %27, align 8
  %31 = getelementptr inbounds nuw %struct.ForEachState, ptr %10, i32 0, i32 1
  store i32 0, ptr %31, align 8
  %32 = getelementptr i8, ptr %10, i64 12
  call void @llvm.memset.p0.i64(ptr align 4 %32, i8 0, i64 4, i1 false)
  br label %33

33:                                               ; preds = %87, %3
  %34 = getelementptr inbounds nuw %struct.ForEachState, ptr %10, i32 0, i32 0
  %35 = load ptr, ptr %34, align 8
  %36 = icmp ne ptr %35, null
  br i1 %36, label %37, label %54

37:                                               ; preds = %33
  %38 = getelementptr inbounds nuw %struct.ForEachState, ptr %10, i32 0, i32 1
  %39 = load i32, ptr %38, align 8
  %40 = getelementptr inbounds nuw %struct.ForEachState, ptr %10, i32 0, i32 0
  %41 = load ptr, ptr %40, align 8
  %42 = getelementptr inbounds nuw %struct.List, ptr %41, i32 0, i32 1
  %43 = load i32, ptr %42, align 4
  %44 = icmp slt i32 %39, %43
  br i1 %44, label %45, label %54

45:                                               ; preds = %37
  %46 = getelementptr inbounds nuw %struct.ForEachState, ptr %10, i32 0, i32 0
  %47 = load ptr, ptr %46, align 8
  %48 = getelementptr inbounds nuw %struct.List, ptr %47, i32 0, i32 3
  %49 = load ptr, ptr %48, align 8
  %50 = getelementptr inbounds nuw %struct.ForEachState, ptr %10, i32 0, i32 1
  %51 = load i32, ptr %50, align 8
  %52 = sext i32 %51 to i64
  %53 = getelementptr inbounds %union.ListCell, ptr %49, i64 %52
  store ptr %53, ptr %9, align 8
  br label %55

54:                                               ; preds = %37, %33
  store ptr null, ptr %9, align 8
  br label %55

55:                                               ; preds = %54, %45
  %56 = phi i32 [ 1, %45 ], [ 0, %54 ]
  %57 = icmp ne i32 %56, 0
  br i1 %57, label %59, label %58

58:                                               ; preds = %55
  store i32 2, ptr %11, align 4
  call void @llvm.lifetime.end.p0(i64 16, ptr %10) #8
  br label %91

59:                                               ; preds = %55
  call void @llvm.lifetime.start.p0(i64 8, ptr %12) #8
  %60 = load ptr, ptr %9, align 8
  %61 = load ptr, ptr %60, align 8
  store ptr %61, ptr %12, align 8
  %62 = load ptr, ptr %12, align 8
  %63 = getelementptr inbounds nuw %struct.TargetEntry, ptr %62, i32 0, i32 7
  %64 = load i8, ptr %63, align 2, !range !7, !noundef !8
  %65 = trunc i8 %64 to i1
  br i1 %65, label %66, label %67

66:                                               ; preds = %59
  store i32 4, ptr %11, align 4
  br label %84

67:                                               ; preds = %59
  %68 = load ptr, ptr %7, align 8
  %69 = load i32, ptr %5, align 4
  %70 = load ptr, ptr %12, align 8
  %71 = call ptr @makeVarFromTargetEntry(i32 noundef %69, ptr noundef %70)
  %72 = call ptr @lappend(ptr noundef %68, ptr noundef %71)
  store ptr %72, ptr %7, align 8
  %73 = load ptr, ptr %12, align 8
  %74 = getelementptr inbounds nuw %struct.TargetEntry, ptr %73, i32 0, i32 2
  %75 = load i16, ptr %74, align 8
  %76 = load ptr, ptr %8, align 8
  %77 = load ptr, ptr %12, align 8
  %78 = getelementptr inbounds nuw %struct.TargetEntry, ptr %77, i32 0, i32 2
  %79 = load i16, ptr %78, align 8
  %80 = sext i16 %79 to i32
  %81 = sub i32 %80, 1
  %82 = sext i32 %81 to i64
  %83 = getelementptr inbounds i16, ptr %76, i64 %82
  store i16 %75, ptr %83, align 2
  store i32 0, ptr %11, align 4
  br label %84

84:                                               ; preds = %67, %66
  call void @llvm.lifetime.end.p0(i64 8, ptr %12) #8
  %85 = load i32, ptr %11, align 4
  switch i32 %85, label %95 [
    i32 0, label %86
    i32 4, label %87
  ]

86:                                               ; preds = %84
  br label %87

87:                                               ; preds = %86, %84
  %88 = getelementptr inbounds nuw %struct.ForEachState, ptr %10, i32 0, i32 1
  %89 = load i32, ptr %88, align 8
  %90 = add i32 %89, 1
  store i32 %90, ptr %88, align 8
  br label %33, !llvm.loop !38

91:                                               ; preds = %58
  %92 = load ptr, ptr %7, align 8
  %93 = load ptr, ptr %6, align 8
  %94 = getelementptr inbounds nuw %struct.AppendRelInfo, ptr %93, i32 0, i32 5
  store ptr %92, ptr %94, align 8
  call void @llvm.lifetime.end.p0(i64 8, ptr %9) #8
  call void @llvm.lifetime.end.p0(i64 8, ptr %8) #8
  call void @llvm.lifetime.end.p0(i64 8, ptr %7) #8
  ret void

95:                                               ; preds = %84
  unreachable
}

; Function Attrs: inlinehint nounwind uwtable
define internal ptr @newNode(i64 noundef %0, i32 noundef %1) #3 {
  %3 = alloca i64, align 8
  %4 = alloca i32, align 4
  %5 = alloca ptr, align 8
  store i64 %0, ptr %3, align 8
  store i32 %1, ptr %4, align 4
  call void @llvm.lifetime.start.p0(i64 8, ptr %5) #8
  %6 = load i64, ptr %3, align 8
  %7 = call ptr @palloc0(i64 noundef %6)
  store ptr %7, ptr %5, align 8
  %8 = load i32, ptr %4, align 4
  %9 = load ptr, ptr %5, align 8
  %10 = getelementptr inbounds nuw %struct.Node, ptr %9, i32 0, i32 0
  store i32 %8, ptr %10, align 4
  %11 = load ptr, ptr %5, align 8
  call void @llvm.lifetime.end.p0(i64 8, ptr %5) #8
  ret ptr %11
}

; Function Attrs: nounwind uwtable
define internal void @pull_up_union_leaf_queries(ptr noundef %0, ptr noundef %1, i32 noundef %2, ptr noundef %3, i32 noundef %4) #0 {
  %6 = alloca ptr, align 8
  %7 = alloca ptr, align 8
  %8 = alloca i32, align 4
  %9 = alloca ptr, align 8
  %10 = alloca i32, align 4
  %11 = alloca ptr, align 8
  %12 = alloca i32, align 4
  %13 = alloca ptr, align 8
  %14 = alloca ptr, align 8
  store ptr %0, ptr %6, align 8
  store ptr %1, ptr %7, align 8
  store i32 %2, ptr %8, align 4
  store ptr %3, ptr %9, align 8
  store i32 %4, ptr %10, align 4
  %15 = load ptr, ptr %6, align 8
  %16 = getelementptr inbounds nuw %struct.Node, ptr %15, i32 0, i32 0
  %17 = load i32, ptr %16, align 4
  %18 = icmp eq i32 %17, 63
  br i1 %18, label %19, label %57

19:                                               ; preds = %5
  call void @llvm.lifetime.start.p0(i64 8, ptr %11) #8
  %20 = load ptr, ptr %6, align 8
  store ptr %20, ptr %11, align 8
  call void @llvm.lifetime.start.p0(i64 4, ptr %12) #8
  call void @llvm.lifetime.start.p0(i64 8, ptr %13) #8
  %21 = load i32, ptr %10, align 4
  %22 = load ptr, ptr %11, align 8
  %23 = getelementptr inbounds nuw %struct.RangeTblRef, ptr %22, i32 0, i32 1
  %24 = load i32, ptr %23, align 4
  %25 = add i32 %21, %24
  store i32 %25, ptr %12, align 4
  %26 = call ptr @newNode(i64 noundef 56, i32 noundef 321)
  store ptr %26, ptr %13, align 8
  %27 = load i32, ptr %8, align 4
  %28 = load ptr, ptr %13, align 8
  %29 = getelementptr inbounds nuw %struct.AppendRelInfo, ptr %28, i32 0, i32 1
  store i32 %27, ptr %29, align 4
  %30 = load i32, ptr %12, align 4
  %31 = load ptr, ptr %13, align 8
  %32 = getelementptr inbounds nuw %struct.AppendRelInfo, ptr %31, i32 0, i32 2
  store i32 %30, ptr %32, align 8
  %33 = load ptr, ptr %13, align 8
  %34 = getelementptr inbounds nuw %struct.AppendRelInfo, ptr %33, i32 0, i32 3
  store i32 0, ptr %34, align 4
  %35 = load ptr, ptr %13, align 8
  %36 = getelementptr inbounds nuw %struct.AppendRelInfo, ptr %35, i32 0, i32 4
  store i32 0, ptr %36, align 8
  %37 = load ptr, ptr %9, align 8
  %38 = load i32, ptr %12, align 4
  %39 = load ptr, ptr %13, align 8
  call void @make_setop_translation_list(ptr noundef %37, i32 noundef %38, ptr noundef %39)
  %40 = load ptr, ptr %13, align 8
  %41 = getelementptr inbounds nuw %struct.AppendRelInfo, ptr %40, i32 0, i32 8
  store i32 0, ptr %41, align 8
  %42 = load ptr, ptr %7, align 8
  %43 = getelementptr inbounds nuw %struct.PlannerInfo, ptr %42, i32 0, i32 32
  %44 = load ptr, ptr %43, align 8
  %45 = load ptr, ptr %13, align 8
  %46 = call ptr @lappend(ptr noundef %44, ptr noundef %45)
  %47 = load ptr, ptr %7, align 8
  %48 = getelementptr inbounds nuw %struct.PlannerInfo, ptr %47, i32 0, i32 32
  store ptr %46, ptr %48, align 8
  %49 = call ptr @newNode(i64 noundef 8, i32 noundef 63)
  store ptr %49, ptr %11, align 8
  %50 = load i32, ptr %12, align 4
  %51 = load ptr, ptr %11, align 8
  %52 = getelementptr inbounds nuw %struct.RangeTblRef, ptr %51, i32 0, i32 1
  store i32 %50, ptr %52, align 4
  %53 = load ptr, ptr %7, align 8
  %54 = load ptr, ptr %11, align 8
  %55 = load ptr, ptr %13, align 8
  %56 = call ptr @pull_up_subqueries_recurse(ptr noundef %53, ptr noundef %54, ptr noundef null, ptr noundef %55)
  call void @llvm.lifetime.end.p0(i64 8, ptr %13) #8
  call void @llvm.lifetime.end.p0(i64 4, ptr %12) #8
  call void @llvm.lifetime.end.p0(i64 8, ptr %11) #8
  br label %92

57:                                               ; preds = %5
  %58 = load ptr, ptr %6, align 8
  %59 = getelementptr inbounds nuw %struct.Node, ptr %58, i32 0, i32 0
  %60 = load i32, ptr %59, align 4
  %61 = icmp eq i32 %60, 142
  br i1 %61, label %62, label %78

62:                                               ; preds = %57
  call void @llvm.lifetime.start.p0(i64 8, ptr %14) #8
  %63 = load ptr, ptr %6, align 8
  store ptr %63, ptr %14, align 8
  %64 = load ptr, ptr %14, align 8
  %65 = getelementptr inbounds nuw %struct.SetOperationStmt, ptr %64, i32 0, i32 3
  %66 = load ptr, ptr %65, align 8
  %67 = load ptr, ptr %7, align 8
  %68 = load i32, ptr %8, align 4
  %69 = load ptr, ptr %9, align 8
  %70 = load i32, ptr %10, align 4
  call void @pull_up_union_leaf_queries(ptr noundef %66, ptr noundef %67, i32 noundef %68, ptr noundef %69, i32 noundef %70)
  %71 = load ptr, ptr %14, align 8
  %72 = getelementptr inbounds nuw %struct.SetOperationStmt, ptr %71, i32 0, i32 4
  %73 = load ptr, ptr %72, align 8
  %74 = load ptr, ptr %7, align 8
  %75 = load i32, ptr %8, align 4
  %76 = load ptr, ptr %9, align 8
  %77 = load i32, ptr %10, align 4
  call void @pull_up_union_leaf_queries(ptr noundef %73, ptr noundef %74, i32 noundef %75, ptr noundef %76, i32 noundef %77)
  call void @llvm.lifetime.end.p0(i64 8, ptr %14) #8
  br label %91

78:                                               ; preds = %57
  br label %79

79:                                               ; preds = %78
  br i1 true, label %80, label %82

80:                                               ; preds = %79
  %81 = call zeroext i1 @errstart_cold(i32 noundef 21, ptr noundef null) #9
  br i1 %81, label %84, label %89

82:                                               ; preds = %79
  %83 = call zeroext i1 @errstart(i32 noundef 21, ptr noundef null)
  br i1 %83, label %84, label %89

84:                                               ; preds = %82, %80
  %85 = load ptr, ptr %6, align 8
  %86 = getelementptr inbounds nuw %struct.Node, ptr %85, i32 0, i32 0
  %87 = load i32, ptr %86, align 4
  %88 = call i32 (ptr, ...) @errmsg_internal(ptr noundef @.str.5, i32 noundef %87)
  call void @errfinish(ptr noundef @.str.2, i32 noundef 1603, ptr noundef @__func__.pull_up_union_leaf_queries)
  br label %89

89:                                               ; preds = %84, %82, %80
  unreachable

90:                                               ; No predecessors!
  br label %91

91:                                               ; preds = %90, %62
  br label %92

92:                                               ; preds = %91, %19
  ret void
}