; Function Attrs: nounwind uwtable
define internal fastcc void @pull_up_union_leaf_queries(ptr noundef readonly captures(none) %0, ptr noundef %1, i32 noundef %2, ptr noundef readonly captures(none) %3, i32 noundef %4) unnamed_addr #0 {
  br label %tailrecurse

tailrecurse:                                      ; preds = %57, %5
  %.tr = phi ptr [ %0, %5 ], [ %61, %57 ]
  %6 = load i32, ptr %.tr, align 4
  switch i32 %6, label %62 [
    i32 63, label %7
    i32 142, label %57
  ]

7:                                                ; preds = %tailrecurse
  %8 = getelementptr inbounds nuw i8, ptr %.tr, i64 4
  %9 = load i32, ptr %8, align 4
  %10 = add i32 %9, %4
  %11 = tail call noundef ptr @palloc0(i64 noundef 56) #7
  store i32 321, ptr %11, align 4
  %12 = getelementptr inbounds nuw i8, ptr %11, i64 4
  store i32 %2, ptr %12, align 4
  %13 = getelementptr inbounds nuw i8, ptr %11, i64 8
  store i32 %10, ptr %13, align 8
  %14 = getelementptr inbounds nuw i8, ptr %11, i64 12
  store i32 0, ptr %14, align 4
  %15 = getelementptr inbounds nuw i8, ptr %11, i64 16
  store i32 0, ptr %15, align 8
  %16 = getelementptr inbounds nuw i8, ptr %3, i64 112
  %17 = load ptr, ptr %16, align 8
  %.not.i.i = icmp eq ptr %17, null
  br i1 %.not.i.i, label %list_length.exit.i, label %18

18:                                               ; preds = %7
  %19 = getelementptr inbounds nuw i8, ptr %17, i64 4
  %20 = load i32, ptr %19, align 4
  br label %list_length.exit.i

list_length.exit.i:                               ; preds = %18, %7
  %21 = phi i32 [ %20, %18 ], [ 0, %7 ]
  %22 = getelementptr inbounds nuw i8, ptr %11, i64 32
  store i32 %21, ptr %22, align 8
  %23 = sext i32 %21 to i64
  %24 = shl nsw i64 %23, 1
  %25 = tail call ptr @palloc0(i64 noundef %24) #7
  %26 = getelementptr inbounds nuw i8, ptr %11, i64 40
  store ptr %25, ptr %26, align 8
  %27 = load ptr, ptr %16, align 8
  %28 = getelementptr inbounds nuw i8, ptr %27, i64 4
  %.not.i = icmp eq ptr %27, null
  %invariant.gep.i = getelementptr i8, ptr %25, i64 -2
  br i1 %.not.i, label %make_setop_translation_list.exit, label %.lr.ph.i

.lr.ph.i:                                         ; preds = %list_length.exit.i
  %29 = getelementptr inbounds nuw i8, ptr %27, i64 16
  %30 = load i32, ptr %28, align 4
  %31 = icmp sgt i32 %30, 0
  br i1 %31, label %.lr.ph30.i, label %make_setop_translation_list.exit

.lr.ph30.i:                                       ; preds = %.lr.ph.i, %45
  %32 = phi i32 [ %46, %45 ], [ %30, %.lr.ph.i ]
  %indvars.iv.i = phi i64 [ %indvars.iv.next.i, %45 ], [ 0, %.lr.ph.i ]
  %.02428.i = phi ptr [ %.1.i, %45 ], [ null, %.lr.ph.i ]
  %33 = load ptr, ptr %29, align 8
  %34 = getelementptr inbounds nuw %union.ListCell, ptr %33, i64 %indvars.iv.i
  %35 = load ptr, ptr %34, align 8
  %36 = getelementptr inbounds nuw i8, ptr %35, i64 42
  %37 = load i8, ptr %36, align 2, !range !4, !noundef !5
  %38 = trunc nuw i8 %37 to i1
  br i1 %38, label %45, label %39

39:                                               ; preds = %.lr.ph30.i
  %40 = tail call ptr @makeVarFromTargetEntry(i32 noundef %10, ptr noundef nonnull %35) #7
  %41 = tail call ptr @lappend(ptr noundef %.02428.i, ptr noundef %40) #7
  %42 = getelementptr inbounds nuw i8, ptr %35, i64 16
  %43 = load i16, ptr %42, align 8
  %44 = sext i16 %43 to i64
  %gep.i = getelementptr i16, ptr %invariant.gep.i, i64 %44
  store i16 %43, ptr %gep.i, align 2
  %.pre.i = load i32, ptr %28, align 4
  br label %45

45:                                               ; preds = %39, %.lr.ph30.i
  %46 = phi i32 [ %.pre.i, %39 ], [ %32, %.lr.ph30.i ]
  %.1.i = phi ptr [ %41, %39 ], [ %.02428.i, %.lr.ph30.i ]
  %indvars.iv.next.i = add nuw nsw i64 %indvars.iv.i, 1
  %47 = sext i32 %46 to i64
  %48 = icmp slt i64 %indvars.iv.next.i, %47
  br i1 %48, label %.lr.ph30.i, label %make_setop_translation_list.exit

make_setop_translation_list.exit:                 ; preds = %45, %list_length.exit.i, %.lr.ph.i
  %.0.lcssa.i = phi ptr [ null, %list_length.exit.i ], [ null, %.lr.ph.i ], [ %.1.i, %45 ]
  %49 = getelementptr inbounds nuw i8, ptr %11, i64 24
  store ptr %.0.lcssa.i, ptr %49, align 8
  %50 = getelementptr inbounds nuw i8, ptr %11, i64 48
  store i32 0, ptr %50, align 8
  %51 = getelementptr inbounds nuw i8, ptr %1, i64 256
  %52 = load ptr, ptr %51, align 8
  %53 = tail call ptr @lappend(ptr noundef %52, ptr noundef nonnull %11) #7
  store ptr %53, ptr %51, align 8
  %54 = tail call noundef ptr @palloc0(i64 noundef 8) #7
  store i32 63, ptr %54, align 4
  %55 = getelementptr inbounds nuw i8, ptr %54, i64 4
  store i32 %10, ptr %55, align 4
  %56 = tail call fastcc ptr @pull_up_subqueries_recurse(ptr noundef %1, ptr noundef nonnull %54, ptr noundef null, ptr noundef nonnull %11)
  ret void

57:                                               ; preds = %tailrecurse
  %58 = getelementptr inbounds nuw i8, ptr %.tr, i64 16
  %59 = load ptr, ptr %58, align 8
  tail call fastcc void @pull_up_union_leaf_queries(ptr noundef %59, ptr noundef %1, i32 noundef %2, ptr noundef %3, i32 noundef %4)
  %60 = getelementptr inbounds nuw i8, ptr %.tr, i64 24
  %61 = load ptr, ptr %60, align 8
  br label %tailrecurse

62:                                               ; preds = %tailrecurse
  %63 = tail call zeroext i1 @errstart_cold(i32 noundef 21, ptr noundef null) #8
  tail call void @llvm.assume(i1 %63)
  %64 = load i32, ptr %.tr, align 4
  %65 = tail call i32 (ptr, ...) @errmsg_internal(ptr noundef nonnull @.str.5, i32 noundef %64) #7
  tail call void @errfinish(ptr noundef nonnull @.str.2, i32 noundef 1603, ptr noundef nonnull @__func__.pull_up_union_leaf_queries) #7
  unreachable
}